target datalayout = "e-m:e-p270:32:32-p271:32:32-p272:64:64-i64:64-i128:128-f80:128-n8:16:32:64-S128"
target triple = "x86_64-pc-linux-gnu"

%"struct.casadi::PluginInterface<casadi::XmlFileInternal>::Plugin" = type { ptr, ptr, ptr, i32, %"struct.casadi::XmlFileInternal::Exposed", ptr, ptr }
%"struct.casadi::XmlFileInternal::Exposed" = type { i8 }

; Function Attrs: mustprogress uwtable
define void @_ZN6casadi7XmlFileC2ERKNSt7__cxx1112basic_stringIcSt11char_traitsIcESaIcEEE(ptr noundef nonnull align 8 dereferenceable(8) %0, ptr noundef nonnull align 8 dereferenceable(32) %1) unnamed_addr #4 align 2 personality ptr @__gxx_personality_v0 {
  %3 = alloca ptr, align 8
  %4 = alloca ptr, align 8
  %5 = alloca ptr, align 8
  %6 = alloca i32, align 4
  store ptr %0, ptr %3, align 8
  store ptr %1, ptr %4, align 8
  %7 = load ptr, ptr %3, align 8
  call void @_ZN6casadi12SharedObjectC2Ev(ptr noundef nonnull align 8 dereferenceable(8) %7)
  %8 = load ptr, ptr %4, align 8
  %9 = invoke noundef nonnull align 8 dereferenceable(48) ptr @_ZN6casadi15PluginInterfaceINS_15XmlFileInternalEE9getPluginERKNSt7__cxx1112basic_stringIcSt11char_traitsIcESaIcEEE(ptr noundef nonnull align 8 dereferenceable(32) %8)
          to label %10 unwind label %16

10:                                               ; preds = %2
  %11 = getelementptr inbounds %"struct.casadi::PluginInterface<casadi::XmlFileInternal>::Plugin", ptr %9, i32 0, i32 0
  %12 = load ptr, ptr %11, align 8
  %13 = invoke noundef ptr %12()
          to label %14 unwind label %16

14:                                               ; preds = %10
  invoke void @_ZN6casadi12SharedObject3ownEPNS_20SharedObjectInternalE(ptr noundef nonnull align 8 dereferenceable(8) %7, ptr noundef %13)
          to label %15 unwind label %16

15:                                               ; preds = %14
  ret void

16:                                               ; preds = %14, %10, %2
  %17 = landingpad { ptr, i32 }
          cleanup
  %18 = extractvalue { ptr, i32 } %17, 0
  store ptr %18, ptr %5, align 8
  %19 = extractvalue { ptr, i32 } %17, 1
  store i32 %19, ptr %6, align 4
  call void @_ZN6casadi12SharedObjectD2Ev(ptr noundef nonnull align 8 dereferenceable(8) %7) #3
  br label %20

20:                                               ; preds = %16
  %21 = load ptr, ptr %5, align 8
  %22 = load i32, ptr %6, align 4
  %23 = insertvalue { ptr, i32 } poison, ptr %21, 0
  %24 = insertvalue { ptr, i32 } %23, i32 %22, 1
  resume { ptr, i32 } %24
}