; Function Attrs: mustprogress uwtable
define void @_ZN6casadi7XmlFileC2ERKNSt7__cxx1112basic_stringIcSt11char_traitsIcESaIcEEE(ptr noundef nonnull align 8 dereferenceable(8) %0, ptr noundef nonnull align 8 dereferenceable(32) %1) unnamed_addr #3 align 2 personality ptr @__gxx_personality_v0 {
  tail call void @_ZN6casadi12SharedObjectC2Ev(ptr noundef nonnull align 8 dereferenceable(8) %0)
  %3 = invoke noundef nonnull align 8 dereferenceable(48) ptr @_ZN6casadi15PluginInterfaceINS_15XmlFileInternalEE9getPluginERKNSt7__cxx1112basic_stringIcSt11char_traitsIcESaIcEEE(ptr noundef nonnull align 8 dereferenceable(32) %1)
          to label %4 unwind label %9

4:                                                ; preds = %2
  %5 = load ptr, ptr %3, align 8
  %6 = invoke noundef ptr %5()
          to label %7 unwind label %9

7:                                                ; preds = %4
  invoke void @_ZN6casadi12SharedObject3ownEPNS_20SharedObjectInternalE(ptr noundef nonnull align 8 dereferenceable(8) %0, ptr noundef %6)
          to label %8 unwind label %9

8:                                                ; preds = %7
  ret void

9:                                                ; preds = %7, %4, %2
  %10 = landingpad { ptr, i32 }
          cleanup
  tail call void @_ZN6casadi12SharedObjectD2Ev(ptr noundef nonnull align 8 dereferenceable(8) %0) #14
  resume { ptr, i32 } %10
}